target datalayout = "e-m:e-p270:32:32-p271:32:32-p272:64:64-i64:64-i128:128-f80:128-n8:16:32:64-S128"
target triple = "x86_64-pc-linux-gnu"

%"struct.duckdb::LogicalType" = type { i8, i8, %"class.duckdb::shared_ptr.168" }
%"class.duckdb::shared_ptr.168" = type { %"class.std::shared_ptr.169" }
%"class.std::shared_ptr.169" = type { %"class.std::__shared_ptr.170" }
%"class.std::__shared_ptr.170" = type { ptr, %"class.std::__shared_count" }
%"class.std::__shared_count" = type { ptr }
%"class.duckdb::ColumnReader" = type { ptr, ptr, ptr, i64, i8, ptr, ptr, i64, i64, i64, %"class.duckdb::shared_ptr", %"class.duckdb::ResizeableBuffer", i32, %"class.duckdb::unique_ptr.11", %"class.duckdb::unique_ptr.11", %"class.duckdb::DictionaryDecoder", %"class.duckdb::DeltaBinaryPackedDecoder", %"class.duckdb::RLEDecoder", %"class.duckdb::DeltaLengthByteArrayDecoder", %"class.duckdb::DeltaByteArrayDecoder", %"class.duckdb::ByteStreamSplitDecoder", [2 x %"class.duckdb::ResizeableBuffer"] }
%"class.duckdb::shared_ptr" = type { %"class.std::shared_ptr" }
%"class.std::shared_ptr" = type { %"class.std::__shared_ptr" }
%"class.std::__shared_ptr" = type { ptr, %"class.std::__shared_count" }
%"class.duckdb::ResizeableBuffer" = type { %"class.duckdb::ByteBuffer", %"class.duckdb::AllocatedData", i64 }
%"class.duckdb::ByteBuffer" = type { ptr, i64 }
%"class.duckdb::AllocatedData" = type { %"class.duckdb::optional_ptr", ptr, i64 }
%"class.duckdb::optional_ptr" = type { ptr }
%"class.duckdb::unique_ptr.11" = type { %"class.std::unique_ptr.12" }
%"class.std::unique_ptr.12" = type { %"struct.std::__uniq_ptr_data.13" }
%"struct.std::__uniq_ptr_data.13" = type { %"class.std::__uniq_ptr_impl.14" }
%"class.std::__uniq_ptr_impl.14" = type { %"class.std::tuple.15" }
%"class.std::tuple.15" = type { %"struct.std::_Tuple_impl.16" }
%"struct.std::_Tuple_impl.16" = type { %"struct.std::_Head_base.19" }
%"struct.std::_Head_base.19" = type { ptr }
%"class.duckdb::DictionaryDecoder" = type { ptr, ptr, %"class.duckdb::unique_ptr.11", %"struct.duckdb::SelectionVector", %"struct.duckdb::SelectionVector", i64, %"class.duckdb::unique_ptr.24", %"class.duckdb::unique_ptr.33", i64, i8, %"class.std::__cxx11::basic_string" }
%"struct.duckdb::SelectionVector" = type { ptr, %"class.duckdb::shared_ptr.20" }
%"class.duckdb::shared_ptr.20" = type { %"class.std::shared_ptr.21" }
%"class.std::shared_ptr.21" = type { %"class.std::__shared_ptr.22" }
%"class.std::__shared_ptr.22" = type { ptr, %"class.std::__shared_count" }
%"class.duckdb::unique_ptr.24" = type { %"class.std::unique_ptr.25" }
%"class.std::unique_ptr.25" = type { %"struct.std::__uniq_ptr_data.26" }
%"struct.std::__uniq_ptr_data.26" = type { %"class.std::__uniq_ptr_impl.27" }
%"class.std::__uniq_ptr_impl.27" = type { %"class.std::tuple.28" }
%"class.std::tuple.28" = type { %"struct.std::_Tuple_impl.29" }
%"struct.std::_Tuple_impl.29" = type { %"struct.std::_Head_base.32" }
%"struct.std::_Head_base.32" = type { ptr }
%"class.duckdb::unique_ptr.33" = type { %"class.std::unique_ptr.34" }
%"class.std::unique_ptr.34" = type { %"struct.std::__uniq_ptr_data.35" }
%"struct.std::__uniq_ptr_data.35" = type { %"class.std::__uniq_ptr_impl.36" }
%"class.std::__uniq_ptr_impl.36" = type { %"class.std::tuple.37" }
%"class.std::tuple.37" = type { %"struct.std::_Tuple_impl.38" }
%"struct.std::_Tuple_impl.38" = type { %"struct.std::_Head_base.41" }
%"struct.std::_Head_base.41" = type { ptr }
%"class.std::__cxx11::basic_string" = type { %"struct.std::__cxx11::basic_string<char>::_Alloc_hider", i64, %union.anon }
%"struct.std::__cxx11::basic_string<char>::_Alloc_hider" = type { ptr }
%union.anon = type { i64, [8 x i8] }
%"class.duckdb::DeltaBinaryPackedDecoder" = type { ptr, ptr, %"class.duckdb::unique_ptr.42" }
%"class.duckdb::unique_ptr.42" = type { %"class.std::unique_ptr.43" }
%"class.std::unique_ptr.43" = type { %"struct.std::__uniq_ptr_data.44" }
%"struct.std::__uniq_ptr_data.44" = type { %"class.std::__uniq_ptr_impl.45" }
%"class.std::__uniq_ptr_impl.45" = type { %"class.std::tuple.46" }
%"class.std::tuple.46" = type { %"struct.std::_Tuple_impl.47" }
%"struct.std::_Tuple_impl.47" = type { %"struct.std::_Head_base.50" }
%"struct.std::_Head_base.50" = type { ptr }
%"class.duckdb::RLEDecoder" = type { ptr, ptr, %"class.duckdb::unique_ptr.11" }
%"class.duckdb::DeltaLengthByteArrayDecoder" = type { ptr, ptr, i64, i64 }
%"class.duckdb::DeltaByteArrayDecoder" = type { ptr, %"class.duckdb::unique_ptr.24", i64, i64 }
%"class.duckdb::ByteStreamSplitDecoder" = type { ptr, ptr, %"class.duckdb::unique_ptr.51" }
%"class.duckdb::unique_ptr.51" = type { %"class.std::unique_ptr.52" }
%"class.std::unique_ptr.52" = type { %"struct.std::__uniq_ptr_data.53" }
%"struct.std::__uniq_ptr_data.53" = type { %"class.std::__uniq_ptr_impl.54" }
%"class.std::__uniq_ptr_impl.54" = type { %"class.std::tuple.55" }
%"class.std::tuple.55" = type { %"struct.std::_Tuple_impl.56" }
%"struct.std::_Tuple_impl.56" = type { %"struct.std::_Head_base.59" }
%"struct.std::_Head_base.59" = type { ptr }
%"class.duckdb::optional_idx" = type { i64 }
%"struct.duckdb::ParquetColumnSchema" = type { i32, %"class.std::__cxx11::basic_string", %"struct.duckdb::LogicalType", i64, i64, i64, i64, %"class.duckdb::optional_idx", i32, i32, i32, i32, %"class.duckdb::vector.172" }
%"class.duckdb::vector.172" = type { %"class.std::vector.173" }
%"class.std::vector.173" = type { %"struct.std::_Vector_base.174" }
%"struct.std::_Vector_base.174" = type { %"struct.std::_Vector_base<duckdb::ParquetColumnSchema, std::allocator<duckdb::ParquetColumnSchema>>::_Vector_impl" }
%"struct.std::_Vector_base<duckdb::ParquetColumnSchema, std::allocator<duckdb::ParquetColumnSchema>>::_Vector_impl" = type { %"struct.std::_Vector_base<duckdb::ParquetColumnSchema, std::allocator<duckdb::ParquetColumnSchema>>::_Vector_impl_data" }
%"struct.std::_Vector_base<duckdb::ParquetColumnSchema, std::allocator<duckdb::ParquetColumnSchema>>::_Vector_impl_data" = type { ptr, ptr, ptr }
%"class.duckdb::StructColumnReader" = type { %"class.duckdb::ColumnReader", %"class.duckdb::vector.340" }
%"class.duckdb::vector.340" = type { %"class.std::vector.341" }
%"class.std::vector.341" = type { %"struct.std::_Vector_base.342" }
%"struct.std::_Vector_base.342" = type { %"struct.std::_Vector_base<duckdb::unique_ptr<duckdb::ColumnReader>, std::allocator<duckdb::unique_ptr<duckdb::ColumnReader>>>::_Vector_impl" }
%"struct.std::_Vector_base<duckdb::unique_ptr<duckdb::ColumnReader>, std::allocator<duckdb::unique_ptr<duckdb::ColumnReader>>>::_Vector_impl" = type { %"struct.std::_Vector_base<duckdb::unique_ptr<duckdb::ColumnReader>, std::allocator<duckdb::unique_ptr<duckdb::ColumnReader>>>::_Vector_impl_data" }
%"struct.std::_Vector_base<duckdb::unique_ptr<duckdb::ColumnReader>, std::allocator<duckdb::unique_ptr<duckdb::ColumnReader>>>::_Vector_impl_data" = type { ptr, ptr, ptr }

; Function Attrs: mustprogress nounwind uwtable
define linkonce_odr noundef nonnull align 8 dereferenceable(24) ptr @_ZNK6duckdb12ColumnReader4TypeEv(ptr noundef nonnull align 8 dereferenceable(544) %0) #7 comdat align 2 {
  %2 = alloca ptr, align 8
  store ptr %0, ptr %2, align 8, !tbaa !184
  %3 = load ptr, ptr %2, align 8
  %4 = getelementptr inbounds nuw %"class.duckdb::ColumnReader", ptr %3, i32 0, i32 1
  %5 = load ptr, ptr %4, align 8, !tbaa !186
  %6 = getelementptr inbounds nuw %"struct.duckdb::ParquetColumnSchema", ptr %5, i32 0, i32 2
  ret ptr %6
}

; Function Attrs: mustprogress nounwind uwtable
define linkonce_odr noundef i64 @_ZNKSt6vectorIN6duckdb10unique_ptrINS0_12ColumnReaderESt14default_deleteIS2_ELb1EEESaIS5_EE4sizeEv(ptr noundef nonnull align 8 dereferenceable(24) %0) #7 comdat align 2 {
  %2 = alloca ptr, align 8
  store ptr %0, ptr %2, align 8, !tbaa !379
  %3 = load ptr, ptr %2, align 8
  %4 = getelementptr inbounds nuw %"struct.std::_Vector_base.342", ptr %3, i32 0, i32 0
  %5 = getelementptr inbounds nuw %"struct.std::_Vector_base<duckdb::unique_ptr<duckdb::ColumnReader>, std::allocator<duckdb::unique_ptr<duckdb::ColumnReader>>>::_Vector_impl_data", ptr %4, i32 0, i32 1
  %6 = load ptr, ptr %5, align 8, !tbaa !395
  %7 = getelementptr inbounds nuw %"struct.std::_Vector_base.342", ptr %3, i32 0, i32 0
  %8 = getelementptr inbounds nuw %"struct.std::_Vector_base<duckdb::unique_ptr<duckdb::ColumnReader>, std::allocator<duckdb::unique_ptr<duckdb::ColumnReader>>>::_Vector_impl_data", ptr %7, i32 0, i32 0
  %9 = load ptr, ptr %8, align 8, !tbaa !397
  %10 = ptrtoint ptr %6 to i64
  %11 = ptrtoint ptr %9 to i64
  %12 = sub i64 %10, %11
  %13 = sdiv exact i64 %12, 8
  ret i64 %13
}

; Function Attrs: mustprogress uwtable
define noundef i64 @_ZN6duckdb18StructColumnReader18GroupRowsAvailableEv(ptr noundef nonnull align 8 dereferenceable(568) %0) unnamed_addr #4 align 2 {
  %2 = alloca i64, align 8
  %3 = alloca ptr, align 8
  %4 = alloca i64, align 8
  %5 = alloca i32, align 4
  store ptr %0, ptr %3, align 8, !tbaa !373
  %6 = load ptr, ptr %3, align 8
  call void @llvm.lifetime.start.p0(i64 8, ptr %4) #3
  store i64 0, ptr %4, align 8, !tbaa !206
  br label %7

7:                                                ; preds = %30, %1
  %8 = load i64, ptr %4, align 8, !tbaa !206
  %9 = getelementptr inbounds nuw %"class.duckdb::StructColumnReader", ptr %6, i32 0, i32 1
  %10 = call noundef i64 @_ZNKSt6vectorIN6duckdb10unique_ptrINS0_12ColumnReaderESt14default_deleteIS2_ELb1EEESaIS5_EE4sizeEv(ptr noundef nonnull align 8 dereferenceable(24) %9) #3
  %11 = icmp ult i64 %8, %10
  br i1 %11, label %13, label %12

12:                                               ; preds = %7
  store i32 2, ptr %5, align 4
  br label %33

13:                                               ; preds = %7
  %14 = getelementptr inbounds nuw %"class.duckdb::StructColumnReader", ptr %6, i32 0, i32 1
  %15 = load i64, ptr %4, align 8, !tbaa !206
  %16 = call noundef nonnull align 8 dereferenceable(8) ptr @_ZN6duckdb6vectorINS_10unique_ptrINS_12ColumnReaderESt14default_deleteIS2_ELb1EEELb1EEixEm(ptr noundef nonnull align 8 dereferenceable(24) %14, i64 noundef %15)
  %17 = call noundef ptr @_ZNK6duckdb10unique_ptrINS_12ColumnReaderESt14default_deleteIS1_ELb1EEptEv(ptr noundef nonnull align 8 dereferenceable(8) %16)
  %18 = call noundef nonnull align 8 dereferenceable(24) ptr @_ZNK6duckdb12ColumnReader4TypeEv(ptr noundef nonnull align 8 dereferenceable(544) %17)
  %19 = call noundef zeroext i1 @_ZN6duckdbL20TypeHasExactRowCountERKNS_11LogicalTypeE(ptr noundef nonnull align 8 dereferenceable(24) %18)
  br i1 %19, label %20, label %29

20:                                               ; preds = %13
  %21 = getelementptr inbounds nuw %"class.duckdb::StructColumnReader", ptr %6, i32 0, i32 1
  %22 = load i64, ptr %4, align 8, !tbaa !206
  %23 = call noundef nonnull align 8 dereferenceable(8) ptr @_ZN6duckdb6vectorINS_10unique_ptrINS_12ColumnReaderESt14default_deleteIS2_ELb1EEELb1EEixEm(ptr noundef nonnull align 8 dereferenceable(24) %21, i64 noundef %22)
  %24 = call noundef ptr @_ZNK6duckdb10unique_ptrINS_12ColumnReaderESt14default_deleteIS1_ELb1EEptEv(ptr noundef nonnull align 8 dereferenceable(8) %23)
  %25 = load ptr, ptr %24, align 8, !tbaa !12
  %26 = getelementptr inbounds ptr, ptr %25, i64 9
  %27 = load ptr, ptr %26, align 8
  %28 = call noundef i64 %27(ptr noundef nonnull align 8 dereferenceable(544) %24)
  store i64 %28, ptr %2, align 8
  store i32 1, ptr %5, align 4
  br label %33

29:                                               ; preds = %13
  br label %30

30:                                               ; preds = %29
  %31 = load i64, ptr %4, align 8, !tbaa !206
  %32 = add i64 %31, 1
  store i64 %32, ptr %4, align 8, !tbaa !206
  br label %7, !llvm.loop !407

33:                                               ; preds = %20, %12
  call void @llvm.lifetime.end.p0(i64 8, ptr %4) #3
  %34 = load i32, ptr %5, align 4
  switch i32 %34, label %45 [
    i32 2, label %35
    i32 1, label %43
  ]

35:                                               ; preds = %33
  %36 = getelementptr inbounds nuw %"class.duckdb::StructColumnReader", ptr %6, i32 0, i32 1
  %37 = call noundef nonnull align 8 dereferenceable(8) ptr @_ZN6duckdb6vectorINS_10unique_ptrINS_12ColumnReaderESt14default_deleteIS2_ELb1EEELb1EEixEm(ptr noundef nonnull align 8 dereferenceable(24) %36, i64 noundef 0)
  %38 = call noundef ptr @_ZNK6duckdb10unique_ptrINS_12ColumnReaderESt14default_deleteIS1_ELb1EEptEv(ptr noundef nonnull align 8 dereferenceable(8) %37)
  %39 = load ptr, ptr %38, align 8, !tbaa !12
  %40 = getelementptr inbounds ptr, ptr %39, i64 9
  %41 = load ptr, ptr %40, align 8
  %42 = call noundef i64 %41(ptr noundef nonnull align 8 dereferenceable(544) %38)
  store i64 %42, ptr %2, align 8
  br label %43

43:                                               ; preds = %35, %33
  %44 = load i64, ptr %2, align 8
  ret i64 %44

45:                                               ; preds = %33
  unreachable
}