; Function Attrs: mustprogress uwtable
define noundef i64 @_ZN6duckdb18StructColumnReader18GroupRowsAvailableEv(ptr noundef nonnull align 8 dereferenceable(568) %0) unnamed_addr #3 align 2 {
  %2 = getelementptr inbounds nuw i8, ptr %0, i64 544
  %3 = getelementptr inbounds nuw i8, ptr %0, i64 552
  %4 = load ptr, ptr %3, align 8, !tbaa !395
  %5 = load ptr, ptr %2, align 8, !tbaa !392
  %.not = icmp eq ptr %4, %5
  br i1 %.not, label %._crit_edge, label %.lr.ph

.lr.ph:                                           ; preds = %1, %12
  %.0614 = phi i64 [ %13, %12 ], [ 0, %1 ]
  %6 = tail call noundef nonnull align 8 dereferenceable(8) ptr @_ZN6duckdb6vectorINS_10unique_ptrINS_12ColumnReaderESt14default_deleteIS2_ELb1EEELb1EEixEm(ptr noundef nonnull align 8 dereferenceable(24) %2, i64 noundef %.0614)
  %7 = tail call noundef ptr @_ZNK6duckdb10unique_ptrINS_12ColumnReaderESt14default_deleteIS1_ELb1EEptEv(ptr noundef nonnull align 8 dereferenceable(8) %6)
  %8 = getelementptr inbounds nuw i8, ptr %7, i64 8
  %9 = load ptr, ptr %8, align 8, !tbaa !12
  %10 = getelementptr inbounds nuw i8, ptr %9, i64 40
  %11 = tail call fastcc noundef zeroext i1 @_ZN6duckdbL20TypeHasExactRowCountERKNS_11LogicalTypeE(ptr noundef nonnull align 8 dereferenceable(24) %10)
  br i1 %11, label %._crit_edge, label %12

12:                                               ; preds = %.lr.ph
  %13 = add nuw i64 %.0614, 1
  %14 = load ptr, ptr %3, align 8, !tbaa !395
  %15 = load ptr, ptr %2, align 8, !tbaa !392
  %16 = ptrtoint ptr %14 to i64
  %17 = ptrtoint ptr %15 to i64
  %18 = sub i64 %16, %17
  %19 = ashr exact i64 %18, 3
  %20 = icmp ult i64 %13, %19
  br i1 %20, label %.lr.ph, label %._crit_edge, !llvm.loop !414

._crit_edge:                                      ; preds = %12, %.lr.ph, %1
  %.0614.lcssa.sink = phi i64 [ 0, %1 ], [ %.0614, %.lr.ph ], [ 0, %12 ]
  %21 = tail call noundef nonnull align 8 dereferenceable(8) ptr @_ZN6duckdb6vectorINS_10unique_ptrINS_12ColumnReaderESt14default_deleteIS2_ELb1EEELb1EEixEm(ptr noundef nonnull align 8 dereferenceable(24) %2, i64 noundef %.0614.lcssa.sink)
  %22 = tail call noundef ptr @_ZNK6duckdb10unique_ptrINS_12ColumnReaderESt14default_deleteIS1_ELb1EEptEv(ptr noundef nonnull align 8 dereferenceable(8) %21)
  %23 = load ptr, ptr %22, align 8, !tbaa !3
  %24 = getelementptr inbounds nuw i8, ptr %23, i64 72
  %25 = load ptr, ptr %24, align 8
  %26 = tail call noundef i64 %25(ptr noundef nonnull align 8 dereferenceable(544) %22)
  ret i64 %26
}